ARM GAS  /var/folders/83/1n5qmjr575d9_vv8wv3g3dz80000gn/T//cce9YShy.s 			page 1


   1              		.cpu cortex-m4
   2              		.eabi_attribute 27, 1
   3              		.eabi_attribute 28, 1
   4              		.eabi_attribute 20, 1
   5              		.eabi_attribute 21, 1
   6              		.eabi_attribute 23, 3
   7              		.eabi_attribute 24, 1
   8              		.eabi_attribute 25, 1
   9              		.eabi_attribute 26, 1
  10              		.eabi_attribute 30, 2
  11              		.eabi_attribute 34, 1
  12              		.eabi_attribute 18, 4
  13              		.file	"main.c"
  14              		.text
  15              	.Ltext0:
  16              		.cfi_sections	.debug_frame
  17              		.section	.text.startup.main,"ax",%progbits
  18              		.align	1
  19              		.p2align 4,,15
  20              		.global	main
  21              		.syntax unified
  22              		.thumb
  23              		.thumb_func
  24              		.fpu fpv4-sp-d16
  25              		.type	main, %function
  26              	main:
  27              	.LFB295:
  28              		.file 1 "main.c"
  29              		.loc 1 70 0
  30              		.cfi_startproc
  31              		@ Volatile: function does not return.
  32              		@ args = 0, pretend = 0, frame = 8
  33              		@ frame_needed = 0, uses_anonymous_args = 0
  34 0000 00B5     		push	{lr}
  35              		.cfi_def_cfa_offset 4
  36              		.cfi_offset 14, -4
  37 0002 174B     		ldr	r3, .L6
  38 0004 83B0     		sub	sp, sp, #12
  39              		.cfi_def_cfa_offset 16
  40              		.loc 1 70 0
  41 0006 1B68     		ldr	r3, [r3]
  42 0008 0193     		str	r3, [sp, #4]
  43              		.loc 1 72 0
  44 000a FFF7FEFF 		bl	halInit
  45              	.LVL0:
  46              		.loc 1 73 0
  47 000e FFF7FEFF 		bl	chSysInit
  48              	.LVL1:
  49              		.loc 1 74 0
  50 0012 FFF7FEFF 		bl	mpu_init
  51              	.LVL2:
  52              		.loc 1 75 0
  53 0016 134A     		ldr	r2, .L6+4
  54 0018 1349     		ldr	r1, .L6+8
  55 001a 1448     		ldr	r0, .L6+12
  56 001c FFF7FEFF 		bl	messagebus_init
  57              	.LVL3:
ARM GAS  /var/folders/83/1n5qmjr575d9_vv8wv3g3dz80000gn/T//cce9YShy.s 			page 2


  58              	.LBB8:
  59              	.LBB9:
  60              		.loc 1 50 0
  61 0020 1349     		ldr	r1, .L6+16
  62 0022 1448     		ldr	r0, .L6+20
  63 0024 FFF7FEFF 		bl	sdStart
  64              	.LVL4:
  65              	.LBE9:
  66              	.LBE8:
  67              		.loc 1 79 0
  68 0028 FFF7FEFF 		bl	usb_start
  69              	.LVL5:
  70              	.LBB10:
  71              	.LBB11:
  72              		.loc 1 64 0
  73 002c 1249     		ldr	r1, .L6+24
  74 002e 1348     		ldr	r0, .L6+28
  75 0030 FFF7FEFF 		bl	gptStart
  76              	.LVL6:
  77              		.loc 1 66 0
  78 0034 4FF6FF71 		movw	r1, #65535
  79 0038 1048     		ldr	r0, .L6+28
  80 003a FFF7FEFF 		bl	gptStartContinuous
  81              	.LVL7:
  82              	.LBE11:
  83              	.LBE10:
  84              		.loc 1 83 0
  85 003e FFF7FEFF 		bl	motors_init
  86              	.LVL8:
  87              		.loc 1 90 0
  88 0042 FFF7FEFF 		bl	dcmi_start
  89              	.LVL9:
  90              		.loc 1 91 0
  91 0046 FFF7FEFF 		bl	po8030_start
  92              	.LVL10:
  93              		.loc 1 94 0
  94 004a FFF7FEFF 		bl	p_regulator_start
  95              	.LVL11:
  96              		.loc 1 95 0
  97 004e FFF7FEFF 		bl	process_image_start
  98              	.LVL12:
  99              	.L2:
 100              		.loc 1 99 0 discriminator 1
 101 0052 FFF7FEFF 		bl	testIR
 102              	.LVL13:
 103              		.loc 1 102 0 discriminator 1
 104 0056 4FF47A70 		mov	r0, #1000
 105 005a FFF7FEFF 		bl	chThdSleep
 106              	.LVL14:
 107 005e F8E7     		b	.L2
 108              	.L7:
 109              		.align	2
 110              	.L6:
 111 0060 00000000 		.word	__stack_chk_guard
 112 0064 00000000 		.word	.LANCHOR0
 113 0068 00000000 		.word	.LANCHOR1
 114 006c 00000000 		.word	.LANCHOR2
ARM GAS  /var/folders/83/1n5qmjr575d9_vv8wv3g3dz80000gn/T//cce9YShy.s 			page 3


 115 0070 00000000 		.word	.LANCHOR3
 116 0074 00000000 		.word	SD3
 117 0078 00000000 		.word	.LANCHOR4
 118 007c 00000000 		.word	GPTD12
 119              		.cfi_endproc
 120              	.LFE295:
 121              		.size	main, .-main
 122              		.section	.text.__stack_chk_fail,"ax",%progbits
 123              		.align	1
 124              		.p2align 4,,15
 125              		.global	__stack_chk_fail
 126              		.syntax unified
 127              		.thumb
 128              		.thumb_func
 129              		.fpu fpv4-sp-d16
 130              		.type	__stack_chk_fail, %function
 131              	__stack_chk_fail:
 132              	.LFB296:
 133              		.loc 1 209 0
 134              		.cfi_startproc
 135              		@ args = 0, pretend = 0, frame = 8
 136              		@ frame_needed = 0, uses_anonymous_args = 0
 137 0000 00B5     		push	{lr}
 138              		.cfi_def_cfa_offset 4
 139              		.cfi_offset 14, -4
 140 0002 084B     		ldr	r3, .L13
 141 0004 83B0     		sub	sp, sp, #12
 142              		.cfi_def_cfa_offset 16
 143              		.loc 1 209 0
 144 0006 1A68     		ldr	r2, [r3]
 145 0008 0192     		str	r2, [sp, #4]
 146              		.loc 1 210 0
 147 000a 019A     		ldr	r2, [sp, #4]
 148 000c 1B68     		ldr	r3, [r3]
 149 000e 9A42     		cmp	r2, r3
 150 0010 05D1     		bne	.L12
 151 0012 0548     		ldr	r0, .L13+4
 152              		.loc 1 211 0
 153 0014 03B0     		add	sp, sp, #12
 154              		.cfi_remember_state
 155              		.cfi_def_cfa_offset 4
 156              		@ sp needed
 157 0016 5DF804EB 		ldr	lr, [sp], #4
 158              		.cfi_restore 14
 159              		.cfi_def_cfa_offset 0
 160              		.loc 1 210 0
 161 001a FFF7FEBF 		b	chSysHalt
 162              	.LVL15:
 163              	.L12:
 164              		.cfi_restore_state
 165 001e FFF7FEFF 		bl	__stack_chk_fail
 166              	.LVL16:
 167              	.L14:
 168 0022 00BF     		.align	2
 169              	.L13:
 170 0024 00000000 		.word	__stack_chk_guard
 171 0028 00000000 		.word	.LC0
ARM GAS  /var/folders/83/1n5qmjr575d9_vv8wv3g3dz80000gn/T//cce9YShy.s 			page 4


 172              		.cfi_endproc
 173              	.LFE296:
 174              		.size	__stack_chk_fail, .-__stack_chk_fail
 175              		.global	__stack_chk_guard
 176              		.global	bus_condvar
 177              		.global	bus_lock
 178              		.global	bus
 179              		.section	.bss.bus,"aw",%nobits
 180              		.align	2
 181              		.set	.LANCHOR2,. + 0
 182              		.type	bus, %object
 183              		.size	bus, 12
 184              	bus:
 185 0000 00000000 		.space	12
 185      00000000 
 185      00000000 
 186              		.section	.data.__stack_chk_guard,"aw",%progbits
 187              		.align	2
 188              		.type	__stack_chk_guard, %object
 189              		.size	__stack_chk_guard, 4
 190              	__stack_chk_guard:
 191 0000 96E3DEE2 		.word	-488709226
 192              		.section	.data.bus_condvar,"aw",%progbits
 193              		.align	2
 194              		.set	.LANCHOR0,. + 0
 195              		.type	bus_condvar, %object
 196              		.size	bus_condvar, 8
 197              	bus_condvar:
 198 0000 00000000 		.word	bus_condvar
 199 0004 00000000 		.word	bus_condvar
 200              		.section	.data.bus_lock,"aw",%progbits
 201              		.align	2
 202              		.set	.LANCHOR1,. + 0
 203              		.type	bus_lock, %object
 204              		.size	bus_lock, 20
 205              	bus_lock:
 206 0000 00000000 		.word	bus_lock
 207 0004 00000000 		.word	bus_lock
 208 0008 00000000 		.word	0
 209 000c 00000000 		.word	0
 210 0010 00000000 		.word	0
 211              		.section	.data.ser_cfg.14929,"aw",%progbits
 212              		.align	2
 213              		.set	.LANCHOR3,. + 0
 214              		.type	ser_cfg.14929, %object
 215              		.size	ser_cfg.14929, 12
 216              	ser_cfg.14929:
 217 0000 00C20100 		.word	115200
 218 0004 0000     		.short	0
 219 0006 0000     		.short	0
 220 0008 0000     		.short	0
 221 000a 0000     		.space	2
 222              		.section	.rodata.__stack_chk_fail.str1.4,"aMS",%progbits,1
 223              		.align	2
 224              	.LC0:
 225 0000 53746163 		.ascii	"Stack smashing detected\000"
 225      6B20736D 
ARM GAS  /var/folders/83/1n5qmjr575d9_vv8wv3g3dz80000gn/T//cce9YShy.s 			page 5


 225      61736869 
 225      6E672064 
 225      65746563 
 226              		.section	.rodata.gpt12cfg.14933,"a",%progbits
 227              		.align	2
 228              		.set	.LANCHOR4,. + 0
 229              		.type	gpt12cfg.14933, %object
 230              		.size	gpt12cfg.14933, 16
 231              	gpt12cfg.14933:
 232 0000 40420F00 		.word	1000000
 233 0004 00000000 		.word	0
 234 0008 00000000 		.word	0
 235 000c 00000000 		.word	0
 236              		.text
 237              	.Letext0:
 238              		.file 2 "/Applications/Eclipse_e-puck2.app/Contents/Eclipse_e-puck2/Tools/gcc-arm-none-eabi-7-2017
 239              		.file 3 "/Applications/Eclipse_e-puck2.app/Contents/Eclipse_e-puck2/Tools/gcc-arm-none-eabi-7-2017
 240              		.file 4 "/Applications/Eclipse_e-puck2.app/Contents/Eclipse_e-puck2/Tools/gcc-arm-none-eabi-7-2017
 241              		.file 5 "/Applications/Eclipse_e-puck2.app/Contents/Eclipse_e-puck2/Tools/gcc-arm-none-eabi-7-2017
 242              		.file 6 "/Applications/Eclipse_e-puck2.app/Contents/Eclipse_e-puck2/Tools/gcc-arm-none-eabi-7-2017
 243              		.file 7 "/Applications/Eclipse_e-puck2.app/Contents/Eclipse_e-puck2/Tools/gcc-arm-none-eabi-7-2017
 244              		.file 8 "/Applications/Eclipse_e-puck2.app/Contents/Eclipse_e-puck2/Tools/gcc-arm-none-eabi-7-2017
 245              		.file 9 "../../lib/e-puck2_main-processor/ChibiOS//os/rt/ports/ARMCMx/compilers/GCC/chtypes.h"
 246              		.file 10 "../../lib/e-puck2_main-processor/ChibiOS//os/rt/include/chsystypes.h"
 247              		.file 11 "../../lib/e-puck2_main-processor/ChibiOS//os/rt/include/chschd.h"
 248              		.file 12 "../../lib/e-puck2_main-processor/ChibiOS//os/ext/CMSIS/include/core_cm4.h"
 249              		.file 13 "../../lib/e-puck2_main-processor/ChibiOS//os/ext/CMSIS/ST/system_stm32f4xx.h"
 250              		.file 14 "../../lib/e-puck2_main-processor/ChibiOS//os/ext/CMSIS/ST/stm32f407xx.h"
 251              		.file 15 "../../lib/e-puck2_main-processor/ChibiOS//os/rt/ports/ARMCMx/chcore.h"
 252              		.file 16 "../../lib/e-puck2_main-processor/ChibiOS//os/rt/ports/ARMCMx/chcore_v7m.h"
 253              		.file 17 "../../lib/e-puck2_main-processor/ChibiOS//os/rt/include/chdebug.h"
 254              		.file 18 "../../lib/e-puck2_main-processor/ChibiOS//os/rt/include/chtm.h"
 255              		.file 19 "../../lib/e-puck2_main-processor/ChibiOS//os/rt/include/chstats.h"
 256              		.file 20 "../../lib/e-puck2_main-processor/ChibiOS//os/rt/include/chsem.h"
 257              		.file 21 "../../lib/e-puck2_main-processor/ChibiOS//os/rt/include/chmtx.h"
 258              		.file 22 "../../lib/e-puck2_main-processor/ChibiOS//os/rt/include/chregistry.h"
 259              		.file 23 "../../lib/e-puck2_main-processor/ChibiOS//os/rt/include/chcond.h"
 260              		.file 24 "../../lib/e-puck2_main-processor/ChibiOS//os/rt/include/chevents.h"
 261              		.file 25 "../../lib/e-puck2_main-processor/ChibiOS//os/rt/include/chqueues.h"
 262              		.file 26 "../../lib/e-puck2_main-processor/ChibiOS//os/hal/ports/STM32/STM32F4xx/stm32_dma.h"
 263              		.file 27 "../../lib/e-puck2_main-processor/ChibiOS//os/hal/include/hal_ioblock.h"
 264              		.file 28 "../../lib/e-puck2_main-processor/ChibiOS//os/hal/ports/STM32/LLD/GPIOv2/pal_lld.h"
 265              		.file 29 "../../lib/e-puck2_main-processor/ChibiOS//os/hal/include/adc.h"
 266              		.file 30 "../../lib/e-puck2_main-processor/ChibiOS//os/hal/ports/STM32/STM32F4xx/adc_lld.h"
 267              		.file 31 "../../lib/e-puck2_main-processor/ChibiOS//os/hal/include/can.h"
 268              		.file 32 "../../lib/e-puck2_main-processor/ChibiOS//os/hal/ports/STM32/LLD/can_lld.h"
 269              		.file 33 "../../lib/e-puck2_main-processor/ChibiOS//os/hal/include/dac.h"
 270              		.file 34 "../../lib/e-puck2_main-processor/ChibiOS//os/hal/ports/STM32/LLD/DACv1/dac_lld.h"
 271              		.file 35 "../../lib/e-puck2_main-processor/ChibiOS//os/hal/include/ext.h"
 272              		.file 36 "../../lib/e-puck2_main-processor/ChibiOS//os/hal/ports/STM32/LLD/ext_lld.h"
 273              		.file 37 "../../lib/e-puck2_main-processor/ChibiOS//os/hal/include/gpt.h"
 274              		.file 38 "../../lib/e-puck2_main-processor/ChibiOS//os/hal/ports/STM32/LLD/TIMv1/gpt_lld.h"
 275              		.file 39 "../../lib/e-puck2_main-processor/ChibiOS//os/hal/ports/STM32/LLD/TIMv1/stm32_tim.h"
 276              		.file 40 "../../lib/e-puck2_main-processor/ChibiOS//os/hal/include/i2c.h"
 277              		.file 41 "../../lib/e-puck2_main-processor/ChibiOS//os/hal/ports/STM32/LLD/I2Cv1/i2c_lld.h"
 278              		.file 42 "../../lib/e-puck2_main-processor/ChibiOS//os/hal/include/i2s.h"
 279              		.file 43 "../../lib/e-puck2_main-processor/ChibiOS//os/hal/ports/STM32/LLD/SPIv1/i2s_lld.h"
ARM GAS  /var/folders/83/1n5qmjr575d9_vv8wv3g3dz80000gn/T//cce9YShy.s 			page 6


 280              		.file 44 "../../lib/e-puck2_main-processor/ChibiOS//os/hal/include/pwm.h"
 281              		.file 45 "../../lib/e-puck2_main-processor/ChibiOS//os/hal/ports/STM32/LLD/TIMv1/pwm_lld.h"
 282              		.file 46 "../../lib/e-puck2_main-processor/ChibiOS//os/hal/include/serial.h"
 283              		.file 47 "../../lib/e-puck2_main-processor/ChibiOS//os/hal/ports/STM32/LLD/USARTv1/serial_lld.h"
 284              		.file 48 "../../lib/e-puck2_main-processor/ChibiOS//os/hal/include/sdc.h"
 285              		.file 49 "../../lib/e-puck2_main-processor/ChibiOS//os/hal/ports/STM32/LLD/sdc_lld.h"
 286              		.file 50 "../../lib/e-puck2_main-processor/ChibiOS//os/hal/include/spi.h"
 287              		.file 51 "../../lib/e-puck2_main-processor/ChibiOS//os/hal/ports/STM32/LLD/SPIv1/spi_lld.h"
 288              		.file 52 "../../lib/e-puck2_main-processor/ChibiOS//os/hal/include/usb.h"
 289              		.file 53 "../../lib/e-puck2_main-processor/ChibiOS//os/hal/ports/STM32/LLD/OTGv1/usb_lld.h"
 290              		.file 54 "../../lib/e-puck2_main-processor/ChibiOS//os/hal/ports/STM32/LLD/OTGv1/stm32_otg.h"
 291              		.file 55 "../../lib/e-puck2_main-processor/ChibiOS//os/hal/include/serial_usb.h"
 292              		.file 56 "../../lib/e-puck2_main-processor/src/usbcfg.h"
 293              		.file 57 "../../lib/e-puck2_main-processor/ChibiOS_ext/os/hal/include/../ports/STM32/STM32F4xx/dcm
 294              		.file 58 "/Applications/Eclipse_e-puck2.app/Contents/Eclipse_e-puck2/Tools/gcc-arm-none-eabi-7-201
 295              		.file 59 "../../lib/e-puck2_main-processor/src/msgbus/messagebus.h"
 296              		.file 60 "../../lib/e-puck2_main-processor/src/parameter/parameter.h"
 297              		.file 61 "./main.h"
 298              		.file 62 "/Applications/Eclipse_e-puck2.app/Contents/Eclipse_e-puck2/Tools/gcc-arm-none-eabi-7-201
 299              		.file 63 "../../lib/e-puck2_main-processor/ChibiOS//os/rt/include/chsys.h"
 300              		.file 64 "../../lib/e-puck2_main-processor/ChibiOS//os/hal/include/hal.h"
 301              		.file 65 "../../lib/e-puck2_main-processor/src/memory_protection.h"
 302              		.file 66 "../../lib/e-puck2_main-processor/src/motors.h"
 303              		.file 67 "../../lib/e-puck2_main-processor/src/camera/dcmi_camera.h"
 304              		.file 68 "../../lib/e-puck2_main-processor/src/camera/po8030.h"
 305              		.file 69 "./pi_regulator.h"
 306              		.file 70 "./process_image.h"
 307              		.file 71 "./IR_processing.h"
 308              		.file 72 "../../lib/e-puck2_main-processor/ChibiOS//os/rt/include/chthreads.h"