ARM GAS  /var/folders/83/1n5qmjr575d9_vv8wv3g3dz80000gn/T//ccFpwafX.s 			page 1


   1              		.cpu cortex-m4
   2              		.eabi_attribute 27, 1
   3              		.eabi_attribute 28, 1
   4              		.eabi_attribute 20, 1
   5              		.eabi_attribute 21, 1
   6              		.eabi_attribute 23, 3
   7              		.eabi_attribute 24, 1
   8              		.eabi_attribute 25, 1
   9              		.eabi_attribute 26, 1
  10              		.eabi_attribute 30, 2
  11              		.eabi_attribute 34, 1
  12              		.eabi_attribute 18, 4
  13              		.file	"process_image.c"
  14              		.text
  15              	.Ltext0:
  16              		.cfi_sections	.debug_frame
  17              		.section	.text.CaptureImage,"ax",%progbits
  18              		.align	1
  19              		.p2align 4,,15
  20              		.syntax unified
  21              		.thumb
  22              		.thumb_func
  23              		.fpu fpv4-sp-d16
  24              		.type	CaptureImage, %function
  25              	CaptureImage:
  26              	.LFB258:
  27              		.file 1 "process_image.c"
  28              		.loc 1 107 0
  29              		.cfi_startproc
  30              		@ Volatile: function does not return.
  31              		@ args = 0, pretend = 0, frame = 8
  32              		@ frame_needed = 0, uses_anonymous_args = 0
  33              	.LVL0:
  34 0000 80B5     		push	{r7, lr}
  35              		.cfi_def_cfa_offset 8
  36              		.cfi_offset 7, -8
  37              		.cfi_offset 14, -4
  38              	.LBB51:
  39              	.LBB52:
  40              		.file 2 "../../lib/e-puck2_main-processor/ChibiOS//os/rt/include/chregistry.h"
  41              		.loc 2 135 0
  42 0002 234C     		ldr	r4, .L8
  43              	.LBE52:
  44              	.LBE51:
  45              		.loc 1 107 0
  46 0004 234A     		ldr	r2, .L8+4
  47              	.LBB55:
  48              	.LBB53:
  49              		.loc 2 135 0
  50 0006 A369     		ldr	r3, [r4, #24]
  51 0008 2349     		ldr	r1, .L8+8
  52              	.LBE53:
  53              	.LBE55:
  54              		.loc 1 107 0
  55 000a 1668     		ldr	r6, [r2]
  56              	.LBB56:
  57              	.LBB54:
ARM GAS  /var/folders/83/1n5qmjr575d9_vv8wv3g3dz80000gn/T//ccFpwafX.s 			page 2


  58              		.loc 2 135 0
  59 000c 9961     		str	r1, [r3, #24]
  60              	.LBE54:
  61              	.LBE56:
  62              		.loc 1 107 0
  63 000e 86B0     		sub	sp, sp, #24
  64              		.cfi_def_cfa_offset 32
  65              		.loc 1 113 0
  66 0010 0223     		movs	r3, #2
  67 0012 2025     		movs	r5, #32
  68 0014 40F2DD12 		movw	r2, #477
  69 0018 0021     		movs	r1, #0
  70 001a 0093     		str	r3, [sp]
  71              		.loc 1 107 0
  72 001c 0596     		str	r6, [sp, #20]
  73              		.loc 1 113 0
  74 001e 4FF42073 		mov	r3, #640
  75 0022 CDE90155 		strd	r5, r5, [sp, #4]
  76 0026 3020     		movs	r0, #48
  77              	.LVL1:
  78 0028 1C4E     		ldr	r6, .L8+12
  79              	.LBB57:
  80              	.LBB58:
  81              	.LBB59:
  82              	.LBB60:
  83              		.file 3 "../../lib/e-puck2_main-processor/ChibiOS//os/rt/include/chsys.h"
  84              		.loc 3 367 0
  85 002a 1D4F     		ldr	r7, .L8+16
  86              	.LBE60:
  87              	.LBE59:
  88              	.LBE58:
  89              	.LBE57:
  90              		.loc 1 113 0
  91 002c FFF7FEFF 		bl	po8030_advanced_config
  92              	.LVL2:
  93              		.loc 1 114 0
  94 0030 FFF7FEFF 		bl	dcmi_enable_double_buffering
  95              	.LVL3:
  96              		.loc 1 115 0
  97 0034 0020     		movs	r0, #0
  98 0036 FFF7FEFF 		bl	dcmi_set_capture_mode
  99              	.LVL4:
 100              	.LBB78:
 101              	.LBB75:
 102              	.LBB65:
 103              	.LBB66:
 104              		.file 4 "../../lib/e-puck2_main-processor/ChibiOS//os/rt/include/chbsem.h"
 105              		.loc 4 271 0
 106 003a B046     		mov	r8, r6
 107              	.LBE66:
 108              	.LBE65:
 109              	.LBE75:
 110              	.LBE78:
 111              		.loc 1 116 0
 112 003c FFF7FEFF 		bl	dcmi_prepare
 113              	.LVL5:
 114 0040 13E0     		b	.L4
ARM GAS  /var/folders/83/1n5qmjr575d9_vv8wv3g3dz80000gn/T//ccFpwafX.s 			page 3


 115              	.LVL6:
 116              	.L2:
 117              	.LBB79:
 118              	.LBB76:
 119              		.loc 4 286 0
 120 0042 FFF7FEFF 		bl	chSchRescheduleS
 121              	.LVL7:
 122              	.LBB68:
 123              	.LBB64:
 124              		.loc 3 360 0
 125 0046 FFF7FEFF 		bl	_dbg_check_unlock
 126              	.LVL8:
 127              		.loc 3 361 0
 128 004a FFF7FEFF 		bl	_stats_stop_measure_crit_thd
 129              	.LVL9:
 130              		.loc 3 367 0
 131 004e 2368     		ldr	r3, [r4]
 132 0050 A342     		cmp	r3, r4
 133 0052 07D0     		beq	.L3
 134 0054 A269     		ldr	r2, [r4, #24]
 135 0056 9B68     		ldr	r3, [r3, #8]
 136 0058 9268     		ldr	r2, [r2, #8]
 137 005a 9A42     		cmp	r2, r3
 138 005c 02D2     		bcs	.L3
 139 005e 3846     		mov	r0, r7
 140 0060 FFF7FEFF 		bl	chSysHalt
 141              	.LVL10:
 142              	.L3:
 143              	.LBB61:
 144              	.LBB62:
 145              	.LBB63:
 146              		.file 5 "../../lib/e-puck2_main-processor/ChibiOS//os/ext/CMSIS/include/core_cmFunc.h"
 147              		.loc 5 546 0
 148 0064 0023     		movs	r3, #0
 149              		.syntax unified
 150              	@ 546 "../../lib/e-puck2_main-processor/ChibiOS//os/ext/CMSIS/include/core_cmFunc.h" 1
 151 0066 83F31188 		MSR basepri, r3
 152              	@ 0 "" 2
 153              	.LVL11:
 154              		.thumb
 155              		.syntax unified
 156              	.L4:
 157              	.LBE63:
 158              	.LBE62:
 159              	.LBE61:
 160              	.LBE64:
 161              	.LBE68:
 162              	.LBE76:
 163              	.LBE79:
 164              		.loc 1 120 0 discriminator 1
 165 006a FFF7FEFF 		bl	dcmi_capture_start
 166              	.LVL12:
 167              		.loc 1 122 0 discriminator 1
 168 006e FFF7FEFF 		bl	wait_image_ready
 169              	.LVL13:
 170              	.LBB80:
 171              	.LBB77:
ARM GAS  /var/folders/83/1n5qmjr575d9_vv8wv3g3dz80000gn/T//ccFpwafX.s 			page 4


 172              	.LBB69:
 173              	.LBB70:
 174              	.LBB71:
 175              	.LBB72:
 176              	.LBB73:
 177              		.loc 5 546 0 discriminator 1
 178              		.syntax unified
 179              	@ 546 "../../lib/e-puck2_main-processor/ChibiOS//os/ext/CMSIS/include/core_cmFunc.h" 1
 180 0072 85F31188 		MSR basepri, r5
 181              	@ 0 "" 2
 182              	.LVL14:
 183              		.thumb
 184              		.syntax unified
 185              	.LBE73:
 186              	.LBE72:
 187              	.LBE71:
 188              		.loc 3 349 0 discriminator 1
 189 0076 FFF7FEFF 		bl	_stats_start_measure_crit_thd
 190              	.LVL15:
 191              		.loc 3 350 0 discriminator 1
 192 007a FFF7FEFF 		bl	_dbg_check_lock
 193              	.LVL16:
 194              	.LBE70:
 195              	.LBE69:
 196              	.LBB74:
 197              	.LBB67:
 198              		.loc 4 268 0 discriminator 1
 199 007e FFF7FEFF 		bl	chDbgCheckClassI
 200              	.LVL17:
 201              		.loc 4 270 0 discriminator 1
 202 0082 B368     		ldr	r3, [r6, #8]
 203 0084 002B     		cmp	r3, #0
 204 0086 DCDC     		bgt	.L2
 205              		.loc 4 271 0
 206 0088 4046     		mov	r0, r8
 207 008a FFF7FEFF 		bl	chSemSignalI
 208              	.LVL18:
 209 008e D8E7     		b	.L2
 210              	.L9:
 211              		.align	2
 212              	.L8:
 213 0090 00000000 		.word	ch
 214 0094 00000000 		.word	__stack_chk_guard
 215 0098 00000000 		.word	.LANCHOR0
 216 009c 00000000 		.word	.LANCHOR1
 217 00a0 00000000 		.word	.LANCHOR2
 218              	.LBE67:
 219              	.LBE74:
 220              	.LBE77:
 221              	.LBE80:
 222              		.cfi_endproc
 223              	.LFE258:
 224              		.size	CaptureImage, .-CaptureImage
 225              		.section	.text.extract_line_width,"ax",%progbits
 226              		.align	1
 227              		.p2align 4,,15
 228              		.global	extract_line_width
ARM GAS  /var/folders/83/1n5qmjr575d9_vv8wv3g3dz80000gn/T//ccFpwafX.s 			page 5


 229              		.syntax unified
 230              		.thumb
 231              		.thumb_func
 232              		.fpu fpv4-sp-d16
 233              		.type	extract_line_width, %function
 234              	extract_line_width:
 235              	.LFB257:
 236              		.loc 1 22 0
 237              		.cfi_startproc
 238              		@ args = 0, pretend = 0, frame = 8
 239              		@ frame_needed = 0, uses_anonymous_args = 0
 240              	.LVL19:
 241 0000 F0B5     		push	{r4, r5, r6, r7, lr}
 242              		.cfi_def_cfa_offset 20
 243              		.cfi_offset 4, -20
 244              		.cfi_offset 5, -16
 245              		.cfi_offset 6, -12
 246              		.cfi_offset 7, -8
 247              		.cfi_offset 14, -4
 248 0002 344D     		ldr	r5, .L38
 249 0004 83B0     		sub	sp, sp, #12
 250              		.cfi_def_cfa_offset 32
 251              		.loc 1 22 0
 252 0006 2B68     		ldr	r3, [r5]
 253 0008 0193     		str	r3, [sp, #4]
 254              	.LVL20:
 255 000a 00F27F24 		addw	r4, r0, #639
 256 000e 431E     		subs	r3, r0, #1
 257              		.loc 1 26 0
 258 0010 0022     		movs	r2, #0
 259              	.LVL21:
 260              	.L11:
 261              	.LBB81:
 262              		.loc 1 32 0 discriminator 3
 263 0012 13F8011F 		ldrb	r1, [r3, #1]!	@ zero_extendqisi2
 264              		.loc 1 31 0 discriminator 3
 265 0016 9C42     		cmp	r4, r3
 266              		.loc 1 32 0 discriminator 3
 267 0018 0A44     		add	r2, r2, r1
 268              	.LVL22:
 269              		.loc 1 31 0 discriminator 3
 270 001a FAD1     		bne	.L11
 271              	.LBE81:
 272              		.loc 1 34 0
 273 001c 2E4B     		ldr	r3, .L38+4
 274 001e 0478     		ldrb	r4, [r0]	@ zero_extendqisi2
 275 0020 A3FB0232 		umull	r3, r2, r3, r2
 276              	.LVL23:
 277 0024 520A     		lsrs	r2, r2, #9
 278              	.LVL24:
 279              		.loc 1 24 0
 280 0026 0021     		movs	r1, #0
 281              		.loc 1 39 0
 282 0028 40F27A27 		movw	r7, #634
 283              	.LVL25:
 284              	.L12:
 285 002c 4B1C     		adds	r3, r1, #1
ARM GAS  /var/folders/83/1n5qmjr575d9_vv8wv3g3dz80000gn/T//ccFpwafX.s 			page 6


 286              		.loc 1 43 0
 287 002e 9442     		cmp	r4, r2
 288 0030 9BB2     		uxth	r3, r3
 289 0032 1CD9     		bls	.L14
 290              	.L36:
 291              		.loc 1 43 0 is_stmt 0 discriminator 1
 292 0034 4418     		adds	r4, r0, r1
 293 0036 6479     		ldrb	r4, [r4, #5]	@ zero_extendqisi2
 294 0038 9442     		cmp	r4, r2
 295 003a 18D2     		bcs	.L14
 296              	.LVL26:
 297              		.loc 1 51 0 is_stmt 1
 298 003c BB42     		cmp	r3, r7
 299 003e 22D8     		bhi	.L13
 300              		.loc 1 51 0 is_stmt 0 discriminator 1
 301 0040 09B3     		cbz	r1, .L13
 302 0042 03F1FF3C 		add	ip, r3, #-1
 303 0046 8444     		add	ip, ip, r0
 304              	.LVL27:
 305              	.L22:
 306              		.loc 1 57 0 is_stmt 1
 307 0048 1CF8014F 		ldrb	r4, [ip, #1]!	@ zero_extendqisi2
 308 004c 9442     		cmp	r4, r2
 309 004e 9EB2     		uxth	r6, r3
 310 0050 12D9     		bls	.L17
 311              		.loc 1 57 0 is_stmt 0 discriminator 1
 312 0052 1CF805EC 		ldrb	lr, [ip, #-5]	@ zero_extendqisi2
 313 0056 9645     		cmp	lr, r2
 314 0058 0ED2     		bcs	.L17
 315              	.LVL28:
 316              		.loc 1 78 0 is_stmt 1
 317 005a 731A     		subs	r3, r6, r1
 318 005c 272B     		cmp	r3, #39
 319 005e 2DDC     		bgt	.L35
 320              	.LVL29:
 321              		.loc 1 39 0
 322 0060 BE42     		cmp	r6, r7
 323 0062 10D8     		bhi	.L13
 324 0064 3146     		mov	r1, r6
 325 0066 4B1C     		adds	r3, r1, #1
 326              		.loc 1 43 0
 327 0068 9442     		cmp	r4, r2
 328 006a 9BB2     		uxth	r3, r3
 329 006c E2D8     		bhi	.L36
 330              	.LVL30:
 331              	.L14:
 332              		.loc 1 39 0 discriminator 1
 333 006e BB42     		cmp	r3, r7
 334 0070 09D8     		bhi	.L13
 335 0072 C45C     		ldrb	r4, [r0, r3]	@ zero_extendqisi2
 336              	.LVL31:
 337              		.loc 1 39 0 is_stmt 0
 338 0074 1946     		mov	r1, r3
 339 0076 D9E7     		b	.L12
 340              	.LVL32:
 341              	.L17:
 342 0078 0136     		adds	r6, r6, #1
ARM GAS  /var/folders/83/1n5qmjr575d9_vv8wv3g3dz80000gn/T//ccFpwafX.s 			page 7


 343 007a B6B2     		uxth	r6, r6
 344              	.LVL33:
 345              		.loc 1 55 0 is_stmt 1
 346 007c B6F5207F 		cmp	r6, #640
 347 0080 03F10103 		add	r3, r3, #1
 348 0084 E0D1     		bne	.L22
 349              	.LVL34:
 350              	.L13:
 351              		.loc 1 91 0
 352 0086 154B     		ldr	r3, .L38+8
 353              		.loc 1 68 0
 354 0088 154A     		ldr	r2, .L38+12
 355              	.LVL35:
 356              		.loc 1 91 0
 357 008a 1888     		ldrh	r0, [r3]
 358              	.LVL36:
 359              		.loc 1 68 0
 360 008c 0121     		movs	r1, #1
 361 008e 1180     		strh	r1, [r2]	@ movhi
 362              	.LVL37:
 363              	.L23:
 364              		.loc 1 99 0
 365 0090 07EE900A 		vmov	s15, r0	@ int
 366 0094 DFED136A 		vldr.32	s13, .L38+16
 367              		.loc 1 104 0
 368 0098 019A     		ldr	r2, [sp, #4]
 369 009a 2B68     		ldr	r3, [r5]
 370              		.loc 1 99 0
 371 009c F8EEE77A 		vcvt.f32.s32	s15, s15
 372 00a0 86EEA77A 		vdiv.f32	s14, s13, s15
 373 00a4 F3EE097A 		vmov.f32	s15, #2.5e+1
 374              		.loc 1 100 0
 375 00a8 B4EE677A 		vcmp.f32	s14, s15
 376 00ac F1EE10FA 		vmrs	APSR_nzcv, FPSCR
 377              		.loc 1 104 0
 378 00b0 C8BF     		it	gt
 379 00b2 3E20     		movgt	r0, #62
 380              	.LVL38:
 381 00b4 9A42     		cmp	r2, r3
 382 00b6 0BD1     		bne	.L37
 383 00b8 03B0     		add	sp, sp, #12
 384              		.cfi_remember_state
 385              		.cfi_def_cfa_offset 20
 386              		@ sp needed
 387 00ba F0BD     		pop	{r4, r5, r6, r7, pc}
 388              	.LVL39:
 389              	.L35:
 390              		.cfi_restore_state
 391              		.loc 1 93 0
 392 00bc 074C     		ldr	r4, .L38+8
 393              		.loc 1 94 0
 394 00be 084A     		ldr	r2, .L38+12
 395              	.LVL40:
 396              		.loc 1 95 0
 397 00c0 094B     		ldr	r3, .L38+20
 398              		.loc 1 93 0
 399 00c2 701A     		subs	r0, r6, r1
ARM GAS  /var/folders/83/1n5qmjr575d9_vv8wv3g3dz80000gn/T//ccFpwafX.s 			page 8


 400              	.LVL41:
 401 00c4 80B2     		uxth	r0, r0
 402              	.LVL42:
 403 00c6 2080     		strh	r0, [r4]	@ movhi
 404              		.loc 1 94 0
 405 00c8 0024     		movs	r4, #0
 406 00ca 1480     		strh	r4, [r2]	@ movhi
 407              		.loc 1 95 0
 408 00cc 1980     		strh	r1, [r3]	@ movhi
 409 00ce DFE7     		b	.L23
 410              	.LVL43:
 411              	.L37:
 412              		.loc 1 104 0
 413 00d0 FFF7FEFF 		bl	__stack_chk_fail
 414              	.LVL44:
 415              	.L39:
 416              		.align	2
 417              	.L38:
 418 00d4 00000000 		.word	__stack_chk_guard
 419 00d8 CDCCCCCC 		.word	-858993459
 420 00dc 00000000 		.word	.LANCHOR4
 421 00e0 00000000 		.word	.LANCHOR3
 422 00e4 0040C444 		.word	1153712128
 423 00e8 00000000 		.word	.LANCHOR5
 424              		.cfi_endproc
 425              	.LFE257:
 426              		.size	extract_line_width, .-extract_line_width
 427              		.section	.text.ProcessImage,"ax",%progbits
 428              		.align	1
 429              		.p2align 4,,15
 430              		.syntax unified
 431              		.thumb
 432              		.thumb_func
 433              		.fpu fpv4-sp-d16
 434              		.type	ProcessImage, %function
 435              	ProcessImage:
 436              	.LFB259:
 437              		.loc 1 130 0
 438              		.cfi_startproc
 439              		@ args = 0, pretend = 0, frame = 648
 440              		@ frame_needed = 0, uses_anonymous_args = 0
 441              	.LVL45:
 442 0000 70B5     		push	{r4, r5, r6, lr}
 443              		.cfi_def_cfa_offset 16
 444              		.cfi_offset 4, -16
 445              		.cfi_offset 5, -12
 446              		.cfi_offset 6, -8
 447              		.cfi_offset 14, -4
 448 0002 2DED028B 		vpush.64	{d8}
 449              		.cfi_def_cfa_offset 24
 450              		.cfi_offset 80, -24
 451              		.cfi_offset 81, -20
 452              	.LBB82:
 453              	.LBB83:
 454              		.loc 2 135 0
 455 0006 194A     		ldr	r2, .L49
 456              	.LBE83:
ARM GAS  /var/folders/83/1n5qmjr575d9_vv8wv3g3dz80000gn/T//ccFpwafX.s 			page 9


 457              	.LBE82:
 458              		.loc 1 130 0
 459 0008 194B     		ldr	r3, .L49+4
 460              	.LBB85:
 461              	.LBB84:
 462              		.loc 2 135 0
 463 000a 9269     		ldr	r2, [r2, #24]
 464 000c 1949     		ldr	r1, .L49+8
 465 000e 9161     		str	r1, [r2, #24]
 466              	.LBE84:
 467              	.LBE85:
 468              		.loc 1 130 0
 469 0010 ADF5227D 		sub	sp, sp, #648
 470              		.cfi_def_cfa_offset 672
 471              		.loc 1 136 0
 472 0014 01AC     		add	r4, sp, #4
 473              		.loc 1 130 0
 474 0016 1B68     		ldr	r3, [r3]
 475 0018 A193     		str	r3, [sp, #644]
 476              		.loc 1 136 0
 477 001a 2046     		mov	r0, r4
 478              	.LVL46:
 479 001c 4FF42072 		mov	r2, #640
 480 0020 0021     		movs	r1, #0
 481 0022 FFF7FEFF 		bl	memset
 482              	.LVL47:
 483 0026 144E     		ldr	r6, .L49+12
 484              	.LBB86:
 485              	.LBB87:
 486              		.loc 4 143 0
 487 0028 144D     		ldr	r5, .L49+16
 488              	.LBE87:
 489              	.LBE86:
 490              		.loc 1 159 0
 491 002a 9FED158A 		vldr.32	s16, .L49+20
 492              	.LVL48:
 493              	.L42:
 494              	.LBB89:
 495              	.LBB88:
 496              		.loc 4 143 0
 497 002e 2846     		mov	r0, r5
 498 0030 FFF7FEFF 		bl	chSemWait
 499              	.LVL49:
 500              	.LBE88:
 501              	.LBE89:
 502              		.loc 1 145 0
 503 0034 FFF7FEFF 		bl	dcmi_get_last_image_ptr
 504              	.LVL50:
 505 0038 0023     		movs	r3, #0
 506              	.LVL51:
 507              	.L41:
 508              	.LBB90:
 509              		.loc 1 151 0 discriminator 3
 510 003a C25C     		ldrb	r2, [r0, r3]	@ zero_extendqisi2
 511 003c C3F34E01 		ubfx	r1, r3, #1, #15
 512 0040 0233     		adds	r3, r3, #2
 513              	.LVL52:
ARM GAS  /var/folders/83/1n5qmjr575d9_vv8wv3g3dz80000gn/T//ccFpwafX.s 			page 10


 514 0042 22F00702 		bic	r2, r2, #7
 515              		.loc 1 148 0 discriminator 3
 516 0046 B3F5A06F 		cmp	r3, #1280
 517              		.loc 1 151 0 discriminator 3
 518 004a 6254     		strb	r2, [r4, r1]
 519              		.loc 1 148 0 discriminator 3
 520 004c F5D1     		bne	.L41
 521              	.LBE90:
 522              		.loc 1 155 0
 523 004e 2046     		mov	r0, r4
 524              	.LVL53:
 525 0050 FFF7FEFF 		bl	extract_line_width
 526              	.LVL54:
 527              		.loc 1 158 0
 528 0054 0028     		cmp	r0, #0
 529 0056 EAD0     		beq	.L42
 530              		.loc 1 159 0
 531 0058 07EE900A 		vmov	s15, r0	@ int
 532 005c F8EEE77A 		vcvt.f32.s32	s15, s15
 533 0060 88EE277A 		vdiv.f32	s14, s16, s15
 534 0064 86ED007A 		vstr.32	s14, [r6]
 535 0068 E1E7     		b	.L42
 536              	.L50:
 537 006a 00BF     		.align	2
 538              	.L49:
 539 006c 00000000 		.word	ch
 540 0070 00000000 		.word	__stack_chk_guard
 541 0074 00000000 		.word	.LANCHOR6
 542 0078 00000000 		.word	.LANCHOR7
 543 007c 00000000 		.word	.LANCHOR1
 544 0080 0040C444 		.word	1153712128
 545              		.cfi_endproc
 546              	.LFE259:
 547              		.size	ProcessImage, .-ProcessImage
 548              		.section	.text.get_distance_cm,"ax",%progbits
 549              		.align	1
 550              		.p2align 4,,15
 551              		.global	get_distance_cm
 552              		.syntax unified
 553              		.thumb
 554              		.thumb_func
 555              		.fpu fpv4-sp-d16
 556              		.type	get_distance_cm, %function
 557              	get_distance_cm:
 558              	.LFB260:
 559              		.loc 1 165 0
 560              		.cfi_startproc
 561              		@ args = 0, pretend = 0, frame = 8
 562              		@ frame_needed = 0, uses_anonymous_args = 0
 563 0000 00B5     		push	{lr}
 564              		.cfi_def_cfa_offset 4
 565              		.cfi_offset 14, -4
 566 0002 084B     		ldr	r3, .L55
 567              		.loc 1 166 0
 568 0004 0849     		ldr	r1, .L55+4
 569              		.loc 1 165 0
 570 0006 1A68     		ldr	r2, [r3]
ARM GAS  /var/folders/83/1n5qmjr575d9_vv8wv3g3dz80000gn/T//ccFpwafX.s 			page 11


 571              		.loc 1 167 0
 572 0008 91ED000A 		vldr.32	s0, [r1]
 573              		.loc 1 165 0
 574 000c 83B0     		sub	sp, sp, #12
 575              		.cfi_def_cfa_offset 16
 576              		.loc 1 165 0
 577 000e 0192     		str	r2, [sp, #4]
 578              		.loc 1 167 0
 579 0010 019A     		ldr	r2, [sp, #4]
 580 0012 1B68     		ldr	r3, [r3]
 581 0014 9A42     		cmp	r2, r3
 582 0016 02D1     		bne	.L54
 583 0018 03B0     		add	sp, sp, #12
 584              		.cfi_remember_state
 585              		.cfi_def_cfa_offset 4
 586              		@ sp needed
 587 001a 5DF804FB 		ldr	pc, [sp], #4
 588              	.L54:
 589              		.cfi_restore_state
 590 001e FFF7FEFF 		bl	__stack_chk_fail
 591              	.LVL55:
 592              	.L56:
 593 0022 00BF     		.align	2
 594              	.L55:
 595 0024 00000000 		.word	__stack_chk_guard
 596 0028 00000000 		.word	.LANCHOR7
 597              		.cfi_endproc
 598              	.LFE260:
 599              		.size	get_distance_cm, .-get_distance_cm
 600              		.section	.text.get_line,"ax",%progbits
 601              		.align	1
 602              		.p2align 4,,15
 603              		.global	get_line
 604              		.syntax unified
 605              		.thumb
 606              		.thumb_func
 607              		.fpu fpv4-sp-d16
 608              		.type	get_line, %function
 609              	get_line:
 610              	.LFB261:
 611              		.loc 1 168 0
 612              		.cfi_startproc
 613              		@ args = 0, pretend = 0, frame = 8
 614              		@ frame_needed = 0, uses_anonymous_args = 0
 615 0000 00B5     		push	{lr}
 616              		.cfi_def_cfa_offset 4
 617              		.cfi_offset 14, -4
 618 0002 074B     		ldr	r3, .L61
 619              		.loc 1 169 0
 620 0004 0749     		ldr	r1, .L61+4
 621              		.loc 1 168 0
 622 0006 1A68     		ldr	r2, [r3]
 623              		.loc 1 170 0
 624 0008 0888     		ldrh	r0, [r1]
 625              		.loc 1 168 0
 626 000a 83B0     		sub	sp, sp, #12
 627              		.cfi_def_cfa_offset 16
ARM GAS  /var/folders/83/1n5qmjr575d9_vv8wv3g3dz80000gn/T//ccFpwafX.s 			page 12


 628              		.loc 1 168 0
 629 000c 0192     		str	r2, [sp, #4]
 630              		.loc 1 170 0
 631 000e 019A     		ldr	r2, [sp, #4]
 632 0010 1B68     		ldr	r3, [r3]
 633 0012 9A42     		cmp	r2, r3
 634 0014 02D1     		bne	.L60
 635 0016 03B0     		add	sp, sp, #12
 636              		.cfi_remember_state
 637              		.cfi_def_cfa_offset 4
 638              		@ sp needed
 639 0018 5DF804FB 		ldr	pc, [sp], #4
 640              	.L60:
 641              		.cfi_restore_state
 642 001c FFF7FEFF 		bl	__stack_chk_fail
 643              	.LVL56:
 644              	.L62:
 645              		.align	2
 646              	.L61:
 647 0020 00000000 		.word	__stack_chk_guard
 648 0024 00000000 		.word	.LANCHOR3
 649              		.cfi_endproc
 650              	.LFE261:
 651              		.size	get_line, .-get_line
 652              		.section	.text.get_line_position,"ax",%progbits
 653              		.align	1
 654              		.p2align 4,,15
 655              		.global	get_line_position
 656              		.syntax unified
 657              		.thumb
 658              		.thumb_func
 659              		.fpu fpv4-sp-d16
 660              		.type	get_line_position, %function
 661              	get_line_position:
 662              	.LFB262:
 663              		.loc 1 171 0
 664              		.cfi_startproc
 665              		@ args = 0, pretend = 0, frame = 8
 666              		@ frame_needed = 0, uses_anonymous_args = 0
 667 0000 00B5     		push	{lr}
 668              		.cfi_def_cfa_offset 4
 669              		.cfi_offset 14, -4
 670 0002 074B     		ldr	r3, .L67
 671              		.loc 1 172 0
 672 0004 0749     		ldr	r1, .L67+4
 673              		.loc 1 171 0
 674 0006 1A68     		ldr	r2, [r3]
 675              		.loc 1 173 0
 676 0008 0888     		ldrh	r0, [r1]
 677              		.loc 1 171 0
 678 000a 83B0     		sub	sp, sp, #12
 679              		.cfi_def_cfa_offset 16
 680              		.loc 1 171 0
 681 000c 0192     		str	r2, [sp, #4]
 682              		.loc 1 173 0
 683 000e 019A     		ldr	r2, [sp, #4]
 684 0010 1B68     		ldr	r3, [r3]
ARM GAS  /var/folders/83/1n5qmjr575d9_vv8wv3g3dz80000gn/T//ccFpwafX.s 			page 13


 685 0012 9A42     		cmp	r2, r3
 686 0014 02D1     		bne	.L66
 687 0016 03B0     		add	sp, sp, #12
 688              		.cfi_remember_state
 689              		.cfi_def_cfa_offset 4
 690              		@ sp needed
 691 0018 5DF804FB 		ldr	pc, [sp], #4
 692              	.L66:
 693              		.cfi_restore_state
 694 001c FFF7FEFF 		bl	__stack_chk_fail
 695              	.LVL57:
 696              	.L68:
 697              		.align	2
 698              	.L67:
 699 0020 00000000 		.word	__stack_chk_guard
 700 0024 00000000 		.word	.LANCHOR5
 701              		.cfi_endproc
 702              	.LFE262:
 703              		.size	get_line_position, .-get_line_position
 704              		.section	.text.process_image_start,"ax",%progbits
 705              		.align	1
 706              		.p2align 4,,15
 707              		.global	process_image_start
 708              		.syntax unified
 709              		.thumb
 710              		.thumb_func
 711              		.fpu fpv4-sp-d16
 712              		.type	process_image_start, %function
 713              	process_image_start:
 714              	.LFB263:
 715              		.loc 1 175 0
 716              		.cfi_startproc
 717              		@ args = 0, pretend = 0, frame = 8
 718              		@ frame_needed = 0, uses_anonymous_args = 0
 719 0000 30B5     		push	{r4, r5, lr}
 720              		.cfi_def_cfa_offset 12
 721              		.cfi_offset 4, -12
 722              		.cfi_offset 5, -8
 723              		.cfi_offset 14, -4
 724 0002 0E4C     		ldr	r4, .L73
 725              		.loc 1 176 0
 726 0004 0E4B     		ldr	r3, .L73+4
 727              		.loc 1 175 0
 728 0006 2268     		ldr	r2, [r4]
 729              		.loc 1 176 0
 730 0008 0E48     		ldr	r0, .L73+8
 731              		.loc 1 175 0
 732 000a 85B0     		sub	sp, sp, #20
 733              		.cfi_def_cfa_offset 32
 734              		.loc 1 176 0
 735 000c 0025     		movs	r5, #0
 736              		.loc 1 175 0
 737 000e 0392     		str	r2, [sp, #12]
 738              		.loc 1 176 0
 739 0010 4FF4AF61 		mov	r1, #1400
 740 0014 4022     		movs	r2, #64
 741 0016 0095     		str	r5, [sp]
ARM GAS  /var/folders/83/1n5qmjr575d9_vv8wv3g3dz80000gn/T//ccFpwafX.s 			page 14


 742 0018 FFF7FEFF 		bl	chThdCreateStatic
 743              	.LVL58:
 744              		.loc 1 177 0
 745 001c 0A4B     		ldr	r3, .L73+12
 746 001e 0095     		str	r5, [sp]
 747 0020 4022     		movs	r2, #64
 748 0022 0A48     		ldr	r0, .L73+16
 749 0024 4FF41E71 		mov	r1, #632
 750 0028 FFF7FEFF 		bl	chThdCreateStatic
 751              	.LVL59:
 752              		.loc 1 178 0
 753 002c 039A     		ldr	r2, [sp, #12]
 754 002e 2368     		ldr	r3, [r4]
 755 0030 9A42     		cmp	r2, r3
 756 0032 01D1     		bne	.L72
 757 0034 05B0     		add	sp, sp, #20
 758              		.cfi_remember_state
 759              		.cfi_def_cfa_offset 12
 760              		@ sp needed
 761 0036 30BD     		pop	{r4, r5, pc}
 762              	.L72:
 763              		.cfi_restore_state
 764 0038 FFF7FEFF 		bl	__stack_chk_fail
 765              	.LVL60:
 766              	.L74:
 767              		.align	2
 768              	.L73:
 769 003c 00000000 		.word	__stack_chk_guard
 770 0040 00000000 		.word	ProcessImage
 771 0044 00000000 		.word	.LANCHOR8
 772 0048 00000000 		.word	CaptureImage
 773 004c 00000000 		.word	.LANCHOR9
 774              		.cfi_endproc
 775              	.LFE263:
 776              		.size	process_image_start, .-process_image_start
 777              		.section	.bss.distance_cm,"aw",%nobits
 778              		.align	2
 779              		.set	.LANCHOR7,. + 0
 780              		.type	distance_cm, %object
 781              		.size	distance_cm, 4
 782              	distance_cm:
 783 0000 00000000 		.space	4
 784              		.section	.bss.no_line,"aw",%nobits
 785              		.align	1
 786              		.set	.LANCHOR3,. + 0
 787              		.type	no_line, %object
 788              		.size	no_line, 2
 789              	no_line:
 790 0000 0000     		.space	2
 791              		.section	.bss.waCaptureImage,"aw",%nobits
 792              		.align	3
 793              		.set	.LANCHOR9,. + 0
 794              		.type	waCaptureImage, %object
 795              		.size	waCaptureImage, 632
 796              	waCaptureImage:
 797 0000 00000000 		.space	632
 797      00000000 
ARM GAS  /var/folders/83/1n5qmjr575d9_vv8wv3g3dz80000gn/T//ccFpwafX.s 			page 15


 797      00000000 
 797      00000000 
 797      00000000 
 798              		.section	.bss.waProcessImage,"aw",%nobits
 799              		.align	3
 800              		.set	.LANCHOR8,. + 0
 801              		.type	waProcessImage, %object
 802              		.size	waProcessImage, 1400
 803              	waProcessImage:
 804 0000 00000000 		.space	1400
 804      00000000 
 804      00000000 
 804      00000000 
 804      00000000 
 805              		.section	.data.image_ready_sem,"aw",%progbits
 806              		.align	2
 807              		.set	.LANCHOR1,. + 0
 808              		.type	image_ready_sem, %object
 809              		.size	image_ready_sem, 12
 810              	image_ready_sem:
 811 0000 00000000 		.word	image_ready_sem
 812 0004 00000000 		.word	image_ready_sem
 813 0008 00000000 		.word	0
 814              		.section	.data.last_width.11343,"aw",%progbits
 815              		.align	1
 816              		.set	.LANCHOR4,. + 0
 817              		.type	last_width.11343, %object
 818              		.size	last_width.11343, 2
 819              	last_width.11343:
 820 0000 9D00     		.short	157
 821              		.section	.data.line_position,"aw",%progbits
 822              		.align	1
 823              		.set	.LANCHOR5,. + 0
 824              		.type	line_position, %object
 825              		.size	line_position, 2
 826              	line_position:
 827 0000 4001     		.short	320
 828              		.section	.rodata.__FUNCTION__.11360,"a",%progbits
 829              		.align	2
 830              		.set	.LANCHOR0,. + 0
 831              		.type	__FUNCTION__.11360, %object
 832              		.size	__FUNCTION__.11360, 13
 833              	__FUNCTION__.11360:
 834 0000 43617074 		.ascii	"CaptureImage\000"
 834      75726549 
 834      6D616765 
 834      00
 835              		.section	.rodata.__FUNCTION__.11366,"a",%progbits
 836              		.align	2
 837              		.set	.LANCHOR6,. + 0
 838              		.type	__FUNCTION__.11366, %object
 839              		.size	__FUNCTION__.11366, 13
 840              	__FUNCTION__.11366:
 841 0000 50726F63 		.ascii	"ProcessImage\000"
 841      65737349 
 841      6D616765 
 841      00
ARM GAS  /var/folders/83/1n5qmjr575d9_vv8wv3g3dz80000gn/T//ccFpwafX.s 			page 16


 842              		.section	.rodata.__func__.7153,"a",%progbits
 843              		.align	2
 844              		.set	.LANCHOR2,. + 0
 845              		.type	__func__.7153, %object
 846              		.size	__func__.7153, 12
 847              	__func__.7153:
 848 0000 63685379 		.ascii	"chSysUnlock\000"
 848      73556E6C 
 848      6F636B00 
 849              		.text
 850              	.Letext0:
 851              		.file 6 "/Applications/Eclipse_e-puck2.app/Contents/Eclipse_e-puck2/Tools/gcc-arm-none-eabi-7-2017
 852              		.file 7 "/Applications/Eclipse_e-puck2.app/Contents/Eclipse_e-puck2/Tools/gcc-arm-none-eabi-7-2017
 853              		.file 8 "/Applications/Eclipse_e-puck2.app/Contents/Eclipse_e-puck2/Tools/gcc-arm-none-eabi-7-2017
 854              		.file 9 "../../lib/e-puck2_main-processor/ChibiOS//os/rt/ports/ARMCMx/compilers/GCC/chtypes.h"
 855              		.file 10 "../../lib/e-puck2_main-processor/ChibiOS//os/rt/include/chsystypes.h"
 856              		.file 11 "../../lib/e-puck2_main-processor/ChibiOS//os/rt/include/chschd.h"
 857              		.file 12 "../../lib/e-puck2_main-processor/ChibiOS//os/ext/CMSIS/include/core_cm4.h"
 858              		.file 13 "../../lib/e-puck2_main-processor/ChibiOS//os/ext/CMSIS/ST/system_stm32f4xx.h"
 859              		.file 14 "../../lib/e-puck2_main-processor/ChibiOS//os/ext/CMSIS/ST/stm32f407xx.h"
 860              		.file 15 "../../lib/e-puck2_main-processor/ChibiOS//os/rt/ports/ARMCMx/chcore.h"
 861              		.file 16 "../../lib/e-puck2_main-processor/ChibiOS//os/rt/ports/ARMCMx/chcore_v7m.h"
 862              		.file 17 "../../lib/e-puck2_main-processor/ChibiOS//os/rt/include/chdebug.h"
 863              		.file 18 "../../lib/e-puck2_main-processor/ChibiOS//os/rt/include/chtm.h"
 864              		.file 19 "../../lib/e-puck2_main-processor/ChibiOS//os/rt/include/chstats.h"
 865              		.file 20 "../../lib/e-puck2_main-processor/ChibiOS//os/rt/include/chsem.h"
 866              		.file 21 "../../lib/e-puck2_main-processor/ChibiOS//os/rt/include/chmtx.h"
 867              		.file 22 "../../lib/e-puck2_main-processor/ChibiOS//os/rt/include/chevents.h"
 868              		.file 23 "../../lib/e-puck2_main-processor/ChibiOS//os/rt/include/chqueues.h"
 869              		.file 24 "../../lib/e-puck2_main-processor/ChibiOS//os/hal/ports/STM32/STM32F4xx/stm32_dma.h"
 870              		.file 25 "../../lib/e-puck2_main-processor/ChibiOS//os/hal/include/hal_ioblock.h"
 871              		.file 26 "../../lib/e-puck2_main-processor/ChibiOS//os/hal/ports/STM32/LLD/GPIOv2/pal_lld.h"
 872              		.file 27 "../../lib/e-puck2_main-processor/ChibiOS//os/hal/include/adc.h"
 873              		.file 28 "../../lib/e-puck2_main-processor/ChibiOS//os/hal/ports/STM32/STM32F4xx/adc_lld.h"
 874              		.file 29 "../../lib/e-puck2_main-processor/ChibiOS//os/hal/include/can.h"
 875              		.file 30 "../../lib/e-puck2_main-processor/ChibiOS//os/hal/ports/STM32/LLD/can_lld.h"
 876              		.file 31 "../../lib/e-puck2_main-processor/ChibiOS//os/hal/include/dac.h"
 877              		.file 32 "../../lib/e-puck2_main-processor/ChibiOS//os/hal/ports/STM32/LLD/DACv1/dac_lld.h"
 878              		.file 33 "../../lib/e-puck2_main-processor/ChibiOS//os/hal/include/ext.h"
 879              		.file 34 "../../lib/e-puck2_main-processor/ChibiOS//os/hal/ports/STM32/LLD/ext_lld.h"
 880              		.file 35 "../../lib/e-puck2_main-processor/ChibiOS//os/hal/include/gpt.h"
 881              		.file 36 "../../lib/e-puck2_main-processor/ChibiOS//os/hal/ports/STM32/LLD/TIMv1/gpt_lld.h"
 882              		.file 37 "../../lib/e-puck2_main-processor/ChibiOS//os/hal/ports/STM32/LLD/TIMv1/stm32_tim.h"
 883              		.file 38 "../../lib/e-puck2_main-processor/ChibiOS//os/hal/include/i2c.h"
 884              		.file 39 "../../lib/e-puck2_main-processor/ChibiOS//os/hal/ports/STM32/LLD/I2Cv1/i2c_lld.h"
 885              		.file 40 "../../lib/e-puck2_main-processor/ChibiOS//os/hal/include/i2s.h"
 886              		.file 41 "../../lib/e-puck2_main-processor/ChibiOS//os/hal/ports/STM32/LLD/SPIv1/i2s_lld.h"
 887              		.file 42 "../../lib/e-puck2_main-processor/ChibiOS//os/hal/include/pwm.h"
 888              		.file 43 "../../lib/e-puck2_main-processor/ChibiOS//os/hal/ports/STM32/LLD/TIMv1/pwm_lld.h"
 889              		.file 44 "../../lib/e-puck2_main-processor/ChibiOS//os/hal/include/serial.h"
 890              		.file 45 "../../lib/e-puck2_main-processor/ChibiOS//os/hal/ports/STM32/LLD/USARTv1/serial_lld.h"
 891              		.file 46 "../../lib/e-puck2_main-processor/ChibiOS//os/hal/include/sdc.h"
 892              		.file 47 "../../lib/e-puck2_main-processor/ChibiOS//os/hal/ports/STM32/LLD/sdc_lld.h"
 893              		.file 48 "../../lib/e-puck2_main-processor/ChibiOS//os/hal/include/spi.h"
 894              		.file 49 "../../lib/e-puck2_main-processor/ChibiOS//os/hal/ports/STM32/LLD/SPIv1/spi_lld.h"
 895              		.file 50 "../../lib/e-puck2_main-processor/ChibiOS//os/hal/include/usb.h"
 896              		.file 51 "../../lib/e-puck2_main-processor/ChibiOS//os/hal/ports/STM32/LLD/OTGv1/usb_lld.h"
ARM GAS  /var/folders/83/1n5qmjr575d9_vv8wv3g3dz80000gn/T//ccFpwafX.s 			page 17


 897              		.file 52 "../../lib/e-puck2_main-processor/ChibiOS//os/hal/ports/STM32/LLD/OTGv1/stm32_otg.h"
 898              		.file 53 "../../lib/e-puck2_main-processor/ChibiOS//os/hal/include/serial_usb.h"
 899              		.file 54 "../../lib/e-puck2_main-processor/src/usbcfg.h"
 900              		.file 55 "../../lib/e-puck2_main-processor/ChibiOS_ext/os/hal/include/../ports/STM32/STM32F4xx/dcm
 901              		.file 56 "../../lib/e-puck2_main-processor/src/camera/po8030.h"
 902              		.file 57 "../../lib/e-puck2_main-processor/src/camera/dcmi_camera.h"
 903              		.file 58 "/Applications/Eclipse_e-puck2.app/Contents/Eclipse_e-puck2/Tools/gcc-arm-none-eabi-7-201
 904              		.file 59 "/Applications/Eclipse_e-puck2.app/Contents/Eclipse_e-puck2/Tools/gcc-arm-none-eabi-7-201
 905              		.file 60 "/Applications/Eclipse_e-puck2.app/Contents/Eclipse_e-puck2/Tools/gcc-arm-none-eabi-7-201
 906              		.file 61 "../../lib/e-puck2_main-processor/src/msgbus/messagebus.h"
 907              		.file 62 "/Applications/Eclipse_e-puck2.app/Contents/Eclipse_e-puck2/Tools/gcc-arm-none-eabi-7-201
 908              		.file 63 "/Applications/Eclipse_e-puck2.app/Contents/Eclipse_e-puck2/Tools/gcc-arm-none-eabi-7-201
 909              		.file 64 "../../lib/e-puck2_main-processor/src/parameter/parameter.h"
 910              		.file 65 "./main.h"
 911              		.file 66 "../../lib/e-puck2_main-processor/ChibiOS//os/rt/include/chthreads.h"
 912              		.file 67 "<built-in>"